target datalayout = "e-m:e-p270:32:32-p271:32:32-p272:64:64-i64:64-i128:128-f80:128-n8:16:32:64-S128"
target triple = "x86_64-unknown-linux-gnu"

%struct.llama_batch = type { i32, ptr, ptr, ptr, ptr, ptr, ptr, i32, i32, i32 }

; Function Attrs: mustprogress nounwind uwtable
define void @llama_batch_free(ptr noundef byval(%struct.llama_batch) align 8 %batch) #1 {
entry:
  %i = alloca i32, align 4
  %token = getelementptr inbounds %struct.llama_batch, ptr %batch, i32 0, i32 1
  %0 = load ptr, ptr %token, align 8
  %tobool = icmp ne ptr %0, null
  br i1 %tobool, label %if.then, label %if.end

if.then:                                          ; preds = %entry
  %token1 = getelementptr inbounds %struct.llama_batch, ptr %batch, i32 0, i32 1
  %1 = load ptr, ptr %token1, align 8
  call void @free(ptr noundef %1) #3
  br label %if.end

if.end:                                           ; preds = %if.then, %entry
  %embd = getelementptr inbounds %struct.llama_batch, ptr %batch, i32 0, i32 2
  %2 = load ptr, ptr %embd, align 8
  %tobool2 = icmp ne ptr %2, null
  br i1 %tobool2, label %if.then3, label %if.end5

if.then3:                                         ; preds = %if.end
  %embd4 = getelementptr inbounds %struct.llama_batch, ptr %batch, i32 0, i32 2
  %3 = load ptr, ptr %embd4, align 8
  call void @free(ptr noundef %3) #3
  br label %if.end5

if.end5:                                          ; preds = %if.then3, %if.end
  %pos = getelementptr inbounds %struct.llama_batch, ptr %batch, i32 0, i32 3
  %4 = load ptr, ptr %pos, align 8
  %tobool6 = icmp ne ptr %4, null
  br i1 %tobool6, label %if.then7, label %if.end9

if.then7:                                         ; preds = %if.end5
  %pos8 = getelementptr inbounds %struct.llama_batch, ptr %batch, i32 0, i32 3
  %5 = load ptr, ptr %pos8, align 8
  call void @free(ptr noundef %5) #3
  br label %if.end9

if.end9:                                          ; preds = %if.then7, %if.end5
  %n_seq_id = getelementptr inbounds %struct.llama_batch, ptr %batch, i32 0, i32 4
  %6 = load ptr, ptr %n_seq_id, align 8
  %tobool10 = icmp ne ptr %6, null
  br i1 %tobool10, label %if.then11, label %if.end13

if.then11:                                        ; preds = %if.end9
  %n_seq_id12 = getelementptr inbounds %struct.llama_batch, ptr %batch, i32 0, i32 4
  %7 = load ptr, ptr %n_seq_id12, align 8
  call void @free(ptr noundef %7) #3
  br label %if.end13

if.end13:                                         ; preds = %if.then11, %if.end9
  %seq_id = getelementptr inbounds %struct.llama_batch, ptr %batch, i32 0, i32 5
  %8 = load ptr, ptr %seq_id, align 8
  %tobool14 = icmp ne ptr %8, null
  br i1 %tobool14, label %if.then15, label %if.end18

if.then15:                                        ; preds = %if.end13
  store i32 0, ptr %i, align 4
  br label %for.cond

for.cond:                                         ; preds = %for.inc, %if.then15
  %9 = load i32, ptr %i, align 4
  %n_tokens = getelementptr inbounds %struct.llama_batch, ptr %batch, i32 0, i32 0
  %10 = load i32, ptr %n_tokens, align 8
  %cmp = icmp slt i32 %9, %10
  br i1 %cmp, label %for.body, label %for.end

for.body:                                         ; preds = %for.cond
  %seq_id16 = getelementptr inbounds %struct.llama_batch, ptr %batch, i32 0, i32 5
  %11 = load ptr, ptr %seq_id16, align 8
  %12 = load i32, ptr %i, align 4
  %idxprom = sext i32 %12 to i64
  %arrayidx = getelementptr inbounds ptr, ptr %11, i64 %idxprom
  %13 = load ptr, ptr %arrayidx, align 8
  call void @free(ptr noundef %13) #3
  br label %for.inc

for.inc:                                          ; preds = %for.body
  %14 = load i32, ptr %i, align 4
  %inc = add nsw i32 %14, 1
  store i32 %inc, ptr %i, align 4
  br label %for.cond, !llvm.loop !78

for.end:                                          ; preds = %for.cond
  %seq_id17 = getelementptr inbounds %struct.llama_batch, ptr %batch, i32 0, i32 5
  %15 = load ptr, ptr %seq_id17, align 8
  call void @free(ptr noundef %15) #3
  br label %if.end18

if.end18:                                         ; preds = %for.end, %if.end13
  %logits = getelementptr inbounds %struct.llama_batch, ptr %batch, i32 0, i32 6
  %16 = load ptr, ptr %logits, align 8
  %tobool19 = icmp ne ptr %16, null
  br i1 %tobool19, label %if.then20, label %if.end22

if.then20:                                        ; preds = %if.end18
  %logits21 = getelementptr inbounds %struct.llama_batch, ptr %batch, i32 0, i32 6
  %17 = load ptr, ptr %logits21, align 8
  call void @free(ptr noundef %17) #3
  br label %if.end22

if.end22:                                         ; preds = %if.then20, %if.end18
  ret void
}