; Function Attrs: mustprogress nounwind uwtable
define void @llama_batch_free(ptr nocapture noundef readonly byval(%struct.llama_batch) align 8 %batch) local_unnamed_addr #0 {
entry:
  %token = getelementptr inbounds i8, ptr %batch, i64 8
  %0 = load ptr, ptr %token, align 8
  %tobool.not = icmp eq ptr %0, null
  br i1 %tobool.not, label %if.end, label %if.then

if.then:                                          ; preds = %entry
  tail call void @free(ptr noundef nonnull %0) #44
  br label %if.end

if.end:                                           ; preds = %if.then, %entry
  %embd = getelementptr inbounds i8, ptr %batch, i64 16
  %1 = load ptr, ptr %embd, align 8
  %tobool2.not = icmp eq ptr %1, null
  br i1 %tobool2.not, label %if.end5, label %if.then3

if.then3:                                         ; preds = %if.end
  tail call void @free(ptr noundef nonnull %1) #44
  br label %if.end5

if.end5:                                          ; preds = %if.then3, %if.end
  %pos = getelementptr inbounds i8, ptr %batch, i64 24
  %2 = load ptr, ptr %pos, align 8
  %tobool6.not = icmp eq ptr %2, null
  br i1 %tobool6.not, label %if.end9, label %if.then7

if.then7:                                         ; preds = %if.end5
  tail call void @free(ptr noundef nonnull %2) #44
  br label %if.end9

if.end9:                                          ; preds = %if.then7, %if.end5
  %n_seq_id = getelementptr inbounds i8, ptr %batch, i64 32
  %3 = load ptr, ptr %n_seq_id, align 8
  %tobool10.not = icmp eq ptr %3, null
  br i1 %tobool10.not, label %if.end13, label %if.then11

if.then11:                                        ; preds = %if.end9
  tail call void @free(ptr noundef nonnull %3) #44
  br label %if.end13

if.end13:                                         ; preds = %if.then11, %if.end9
  %seq_id = getelementptr inbounds i8, ptr %batch, i64 40
  %4 = load ptr, ptr %seq_id, align 8
  %tobool14.not = icmp eq ptr %4, null
  br i1 %tobool14.not, label %if.end18, label %for.cond.preheader

for.cond.preheader:                               ; preds = %if.end13
  %5 = load i32, ptr %batch, align 8
  %cmp7 = icmp sgt i32 %5, 0
  br i1 %cmp7, label %for.body.preheader, label %for.end

for.body.preheader:                               ; preds = %for.cond.preheader
  %wide.trip.count = zext nneg i32 %5 to i64
  br label %for.body

for.body:                                         ; preds = %for.body.preheader, %for.body
  %indvars.iv = phi i64 [ 0, %for.body.preheader ], [ %indvars.iv.next, %for.body ]
  %arrayidx = getelementptr inbounds ptr, ptr %4, i64 %indvars.iv
  %6 = load ptr, ptr %arrayidx, align 8
  tail call void @free(ptr noundef %6) #44
  %indvars.iv.next = add nuw nsw i64 %indvars.iv, 1
  %exitcond.not = icmp eq i64 %indvars.iv.next, %wide.trip.count
  br i1 %exitcond.not, label %for.end, label %for.body, !llvm.loop !209

for.end:                                          ; preds = %for.body, %for.cond.preheader
  tail call void @free(ptr noundef nonnull %4) #44
  br label %if.end18

if.end18:                                         ; preds = %for.end, %if.end13
  %logits = getelementptr inbounds i8, ptr %batch, i64 48
  %7 = load ptr, ptr %logits, align 8
  %tobool19.not = icmp eq ptr %7, null
  br i1 %tobool19.not, label %if.end22, label %if.then20

if.then20:                                        ; preds = %if.end18
  tail call void @free(ptr noundef nonnull %7) #44
  br label %if.end22

if.end22:                                         ; preds = %if.then20, %if.end18
  ret void
}